; Function Attrs: mustprogress nounwind uwtable
define dso_local void @_ZN3tev10UberShaderD0Ev(ptr noundef nonnull align 8 dereferenceable(40) %0) unnamed_addr #1 align 2 {
  store ptr getelementptr inbounds ({ [4 x ptr] }, ptr @_ZTVN3tev10UberShaderE, i64 0, i32 0, i64 2), ptr %0, align 8
  %2 = getelementptr inbounds i8, ptr %0, i64 16
  %3 = load ptr, ptr %2, align 8
  %.not.i.i = icmp eq ptr %3, null
  br i1 %.not.i.i, label %_ZN7nanogui3refINS_7TextureEED2Ev.exit.i, label %4

4:                                                ; preds = %1
  tail call void @_ZNK7nanogui6Object7dec_refEb(ptr noundef nonnull align 8 dereferenceable(12) %3, i1 noundef zeroext true) #22
  br label %_ZN7nanogui3refINS_7TextureEED2Ev.exit.i

_ZN7nanogui3refINS_7TextureEED2Ev.exit.i:         ; preds = %4, %1
  %5 = getelementptr inbounds i8, ptr %0, i64 8
  %6 = load ptr, ptr %5, align 8
  %.not.i1.i = icmp eq ptr %6, null
  br i1 %.not.i1.i, label %_ZN3tev10UberShaderD2Ev.exit, label %7

7:                                                ; preds = %_ZN7nanogui3refINS_7TextureEED2Ev.exit.i
  tail call void @_ZNK7nanogui6Object7dec_refEb(ptr noundef nonnull align 8 dereferenceable(12) %6, i1 noundef zeroext true) #22
  br label %_ZN3tev10UberShaderD2Ev.exit

_ZN3tev10UberShaderD2Ev.exit:                     ; preds = %_ZN7nanogui3refINS_7TextureEED2Ev.exit.i, %7
  tail call void @_ZdlPv(ptr noundef nonnull %0) #23
  ret void
}